target datalayout = "e-m:e-p270:32:32-p271:32:32-p272:64:64-i64:64-i128:128-f80:128-n8:16:32:64-S128"
target triple = "x86_64-pc-linux-gnu"

@.str = private unnamed_addr constant [118 x i8] c"generated/home/dtcxzyw/WorkSpace/Projects/compilers/llvm-opt-benchmark/bench/libquic/libquic/boringssl/ssl/ssl_asn1.c\00", align 1

; Function Attrs: nounwind uwtable
define internal i32 @SSL_SESSION_parse_long(ptr noundef %0, ptr noundef %1, i32 noundef %2, i64 noundef %3) #0 {
  %5 = alloca i32, align 4
  %6 = alloca ptr, align 8
  %7 = alloca ptr, align 8
  %8 = alloca i32, align 4
  %9 = alloca i64, align 8
  %10 = alloca i64, align 8
  %11 = alloca i32, align 4
  store ptr %0, ptr %6, align 8, !tbaa !52
  store ptr %1, ptr %7, align 8, !tbaa !13
  store i32 %2, ptr %8, align 4, !tbaa !15
  store i64 %3, ptr %9, align 8, !tbaa !48
  call void @llvm.lifetime.start.p0(i64 8, ptr %10) #6
  %12 = load ptr, ptr %6, align 8, !tbaa !52
  %13 = load i32, ptr %8, align 4, !tbaa !15
  %14 = load i64, ptr %9, align 8, !tbaa !48
  %15 = call i32 @CBS_get_optional_asn1_uint64(ptr noundef %12, ptr noundef %10, i32 noundef %13, i64 noundef %14)
  %16 = icmp ne i32 %15, 0
  br i1 %16, label %17, label %20

17:                                               ; preds = %4
  %18 = load i64, ptr %10, align 8, !tbaa !48
  %19 = icmp ugt i64 %18, 9223372036854775807
  br i1 %19, label %20, label %21

20:                                               ; preds = %17, %4
  call void @ERR_put_error(i32 noundef 16, i32 noundef 0, i32 noundef 160, ptr noundef @.str, i32 noundef 474)
  store i32 0, ptr %5, align 4
  store i32 1, ptr %11, align 4
  br label %24

21:                                               ; preds = %17
  %22 = load i64, ptr %10, align 8, !tbaa !48
  %23 = load ptr, ptr %7, align 8, !tbaa !13
  store i64 %22, ptr %23, align 8, !tbaa !48
  store i32 1, ptr %5, align 4
  store i32 1, ptr %11, align 4
  br label %24

24:                                               ; preds = %21, %20
  call void @llvm.lifetime.end.p0(i64 8, ptr %10) #6
  %25 = load i32, ptr %5, align 4
  ret i32 %25
}