; Function Attrs: nounwind uwtable
define internal fastcc range(i32 0, 2) i32 @SSL_SESSION_parse_long(ptr noundef nonnull %0, ptr noundef nonnull writeonly captures(none) %1, i32 noundef range(i32 161, 166) %2, i64 noundef %3) unnamed_addr #0 {
  %5 = alloca i64, align 8
  call void @llvm.lifetime.start.p0(i64 8, ptr nonnull %5) #7
  %6 = call i32 @CBS_get_optional_asn1_uint64(ptr noundef nonnull %0, ptr noundef nonnull %5, i32 noundef %2, i64 noundef %3) #7
  %7 = icmp eq i32 %6, 0
  %8 = load i64, ptr %5, align 8
  %9 = icmp slt i64 %8, 0
  %or.cond = select i1 %7, i1 true, i1 %9
  br i1 %or.cond, label %10, label %11

10:                                               ; preds = %4
  call void @ERR_put_error(i32 noundef 16, i32 noundef 0, i32 noundef 160, ptr noundef nonnull @.str, i32 noundef 474) #7
  br label %12

11:                                               ; preds = %4
  store i64 %8, ptr %1, align 8, !tbaa !44
  br label %12

12:                                               ; preds = %11, %10
  %.0 = phi i32 [ 0, %10 ], [ 1, %11 ]
  call void @llvm.lifetime.end.p0(i64 8, ptr nonnull %5) #7
  ret i32 %.0
}